; Function Attrs: mustprogress uwtable
define void @_Z9SetSFXExtPwm(ptr noundef %0, i64 noundef %1) local_unnamed_addr #3 {
  %3 = icmp eq ptr %0, null
  br i1 %3, label %22, label %4

4:                                                ; preds = %2
  %5 = load i32, ptr %0, align 4
  %6 = icmp eq i32 %5, 0
  br i1 %6, label %22, label %7

7:                                                ; preds = %4
  %8 = tail call i64 @wcslen(ptr noundef nonnull readonly %0) #18
  %9 = and i64 %8, 4294967295
  br label %10

10:                                               ; preds = %13, %7
  %indvars.iv.i.i.i = phi i64 [ %14, %13 ], [ %9, %7 ]
  %11 = trunc nuw i64 %indvars.iv.i.i.i to i32
  %12 = icmp sgt i32 %11, 0
  br i1 %12, label %13, label %_Z6GetExtPKw.exit.i

13:                                               ; preds = %10
  %14 = add nsw i64 %indvars.iv.i.i.i, -1
  %15 = getelementptr inbounds nuw i32, ptr %0, i64 %14
  %16 = load i32, ptr %15, align 4
  %17 = icmp eq i32 %16, 47
  br i1 %17, label %18, label %10, !llvm.loop !4

18:                                               ; preds = %13
  %19 = getelementptr inbounds nuw i32, ptr %0, i64 %indvars.iv.i.i.i
  br label %_Z6GetExtPKw.exit.i

_Z6GetExtPKw.exit.i:                              ; preds = %10, %18
  %.011.i.i.i = phi ptr [ %19, %18 ], [ %0, %10 ]
  %20 = tail call ptr @wcsrchr(ptr noundef %.011.i.i.i, i32 noundef signext 46) #18
  %.not.i = icmp eq ptr %20, null
  br i1 %.not.i, label %_Z6SetExtPwPKwm.exit, label %21

21:                                               ; preds = %_Z6GetExtPKw.exit.i
  store i32 0, ptr %20, align 4
  br label %_Z6SetExtPwPKwm.exit

_Z6SetExtPwPKwm.exit:                             ; preds = %_Z6GetExtPKw.exit.i, %21
  tail call void @_Z8wcsncatzPwPKwm(ptr noundef nonnull %0, ptr noundef nonnull @.str, i64 noundef %1)
  tail call void @_Z8wcsncatzPwPKwm(ptr noundef nonnull %0, ptr noundef nonnull @.str.1, i64 noundef %1)
  br label %22

22:                                               ; preds = %2, %4, %_Z6SetExtPwPKwm.exit
  ret void
}